(dp1
S'output'
p2
S"<type 'exceptions.SyntaxError'> invalid syntax (default.py, line 200)"
p3
sS'layer'
p4
S'/home/wasuaje/Documentos/desarrollo/web2py6/applications/PyRest/controllers/default.py'
p5
sS'code'
p6
S'# -*- coding: utf-8 -*-\n### required - do no delete\ndef user(): return dict(form=auth())\ndef download(): return response.download(request,db)\ndef call(): return service()\n### end requires\ndef index():\n\t""" \n\tSeteo todas las variables de sesion iniciales que se mantendran por todo el el sistema y \n\tque son de utilidad en multiples ocasiones. Empresa, usuarios, configuraciones por ejemplo\n\t"""\n\t#Query a la empresa y al usuario para obtener estos valores.\n\tsession.empresa  = session.empresa or {}\n\tsession.user  = session.user or {}\n\tcrow=db(db.cf_empresa.id > 0).select()\n\tcrow=len(crow)\n\tif crow>0:\n\t\trow= db(db.cf_empresa.id > 0).select().first()\t\n\t\tsession.empresa[\'id\']=row.id\n\t\tsession.empresa[\'nombre\']=row.nombre\n\t\tsession.empresa[\'razon\']=row.razon_social\n\t\tsession.empresa[\'rif\']=row.rif\n\t\tsession.empresa[\'nit\']=row.nit\n\t\tsession.empresa[\'email\']=row.email\n\t\tsession.empresa[\'direccion\']=row.direccion\n\t\tsession.empresa[\'telefono\']=row.tlf\n\t\tsession.empresa[\'ruta_foto\']=row.ruta_foto\n\t\n\n\t\t#print session.empresa\n\t\t"""session.user[id]\n\t\tsession.user[nombre]\n\t\tsession.user[usuario]#"""\n\t\tsession.user[\'usuario\']=\'wasuaje\'\n\t\n\treturn dict()\n\ndef error():\n    return dict()\n\ndef modulos():\n\tmydiv=[]\t\n\tmydiv.append(DIV(A(IMG(_src=URL(\'static/images\',\'sistema.jpg\'), _alt="Punto de venta, POS",  _width="80", _height="80", _class="none"),\n\t\t\t\t\t\t\t\t\t\t_href=URL(\'pos\',\'index\')), CENTER(P(B("Punto de Venta"))) , _class="img"))\n\tmydiv.append(DIV(A(IMG(_src=URL(\'static/images\',\'meseros.jpeg\'), _alt="categorias, productos, ingredientes, combos, etc.",  _width="80", _height="80", _class="none"),\n\t\t\t\t\t\t\t\t\t\t_href=URL(\'configserv\',\'index\')), CENTER(P(B("Configurar servicio"))) , _class="img"))\n\tmydiv.append(DIV(A(IMG(_src=URL(\'static/images\',\'meseros.jpeg\'), _alt="categorias, productos, ingredientes, combos, etc.",  _width="80", _height="80", _class="none"),\n\t\t\t\t\t\t\t\t\t\t_href=URL(\'configserv\',\'index\')), CENTER(P(B("Configurar servicio"))) , _class="img"))\n\tmydiv.append(DIV(A(IMG(_src=URL(\'static/images\',\'meseros.jpeg\'), _alt="categorias, productos, ingredientes, combos, etc.",  _width="80", _height="80", _class="none"),\n\t\t\t\t\t\t\t\t\t\t_href=URL(\'configserv\',\'index\')), CENTER(P(B("Configurar servicio"))) , _class="img"))\t\n\t\n\tsrc="$(\'#modulos\').show(\'slow\');$(\'#modulos\').width(\'550px\');"\n\tmydiv2=DIV(DIV(H1(T("Modulos")), _class="title"),XML("".join(["%s" % (k) for k in mydiv])) , SCRIPT(src))\n\t\n\t  \n\treturn dict(mods=mydiv2)\n\ndef config():\n\tmydiv=[]\t\n\tmydiv.append(DIV(A(IMG(_src=URL(\'static/images\',\'ico-inducom.png\'), _alt="Empresa actual",  _width="80", _height="80", _class="none"),\n\t\t\t\t\t\t\t\t\t\t_href=URL(\'empresa\',\'index\')), CENTER(P(B("Empresa"))) , _class="img"))\n\tmydiv.append(DIV(A(IMG(_src=URL(\'static/images\',\'parametro.jpg\'), _alt="categorias, productos, ingredientes, combos, etc.",  _width="80", _height="80", _class="none"),\n\t\t\t\t\t\t\t\t\t\t_href=URL(\'parametros\',\'index\')), CENTER(P(B("Parametros"))) , _class="img"))\n\tmydiv.append(DIV(A(IMG(_src=URL(\'static/images\',\'usuarios.jpeg\'), _alt="categorias, productos, ingredientes, combos, etc.",  _width="80", _height="80", _class="none"),\n\t\t\t\t\t\t\t\t\t\t_href=URL(\'usuarios\',\'index\')), CENTER(P(B("User/Acces."))) , _class="img"))\n\tmydiv.append(DIV(A(IMG(_src=URL(\'static/images\',\'inventario.jpg\'), _alt="categorias, productos, ingredientes, combos, etc.",  _width="80", _height="80", _class="none"),\n\t\t\t\t\t\t\t\t\t\t_href=URL(\'inventarios\',\'index\')), CENTER(P(B("Inventarios"))) , _class="img"))\t\n\tmydiv.append(DIV(A(IMG(_src=URL(\'static/images\',\'graficos.jpeg\'), _alt="reportes ",  _width="80", _height="80", _class="none"),\n\t\t\t\t\t\t\t\t\t\t_href=URL(\'default\',\'reportes\')), CENTER(P(B("Reportes"))) , _class="img"))\t\n\n\tsrc="$(\'#modulos\').show(\'slow\');$(\'#modulos\').width(\'550px\');"\n\t\n\tmydiv2=DIV(DIV(H1(T("Configuracion")), _class="title"),XML("".join(["%s" % (k) for k in mydiv])),  SCRIPT(src))\n\t\n\t\n\treturn dict(mydiv=mydiv2,)\n\ndef configprod():\n\tmydiv=[]\t\n\tmydiv.append(DIV(A(IMG(_src=URL(\'static/images\',\'ico-inducom.png\'), _alt="Empresa actual",  _width="120", _height="120", _class="none"),\n\t\t\t\t\t\t\t\t\t\t_href=URL(\'categoria\',\'index\')), CENTER(P(B("Categorias"))) , _class="img"))\n\tmydiv.append(DIV(A(IMG(_src=URL(\'static/images\',\'parametro.jpg\'), _alt="categorias, productos, ingredientes, combos, etc.",  _width="120", _height="120", _class="none"),\n\t\t\t\t\t\t\t\t\t\t_href=URL(\'producto\',\'index\')), CENTER(P(B("Productos"))) , _class="img"))\n\tmydiv.append(DIV(A(IMG(_src=URL(\'static/images\',\'usuarios.jpeg\'), _alt="categorias, productos, ingredientes, combos, etc.",  _width="120", _height="120", _class="none"),\n\t\t\t\t\t\t\t\t\t\t_href=URL(\'ingrediente\',\'index\')), CENTER(P(B("Ingredientes"))) , _class="img"))\n\tmydiv.append(DIV(A(IMG(_src=URL(\'static/images\',\'inventario.jpg\'), _alt="categorias, productos, ingredientes, combos, etc.",  _width="120", _height="120", _class="none"),\n\t\t\t\t\t\t\t\t\t\t_href=URL(\'combro\',\'index\')), CENTER(P(B("Combos"))) , _class="img"))\t\n\tmydiv.append(DIV(A(IMG(_src=URL(\'static/images\',\'inventario.jpg\'), _alt="categorias, productos, ingredientes, combos, etc.",  _width="120", _height="120", _class="none"),\n\t\t\t\t\t\t\t\t\t\t_href=URL(\'ingprod\',\'index\')), CENTER(P(B("Ingred por Prod"))) , _class="img"))\t\t\t\t\t\t\t\t\t\t\t\n\t\n\n\tsrc="$(\'#modulos\').show(\'slow\');$(\'#modulos\').width(\'550px\');"\n\tmydiv2=DIV(DIV(H1(T("Productos y Categorias")), _class="title"),XML("".join(["%s" % (k) for k in mydiv])),SCRIPT(src))\t\n\t\n\n\treturn dict(mydiv=mydiv2)\n\ndef maestra():\n\tmydiv=[]\t\n\tmydiv.append(DIV(A(IMG(_src=URL(\'static/images\',\'mesas.jpeg\'), _alt="mesas",  _width="80", _height="80", _class="none"),\n\t\t\t\t\t\t\t\t\t\t_href=URL(\'mesas\',\'index\')), CENTER(P(B("Mesas"))) , _class="imgmed"))\n\tmydiv.append(DIV(A(IMG(_src=URL(\'static/images\',\'meseros2.jpg\'), _alt="meseros",  _width="80", _height="80", _class="none"),\n\t\t\t\t\t\t\t\t\t\t_href=URL(\'meseros\',\'index\')), CENTER(P(B("Meseros"))) , _class="imgmed"))\n\tmydiv.append(DIV(A(IMG(_src=URL(\'static/images\',\'usuarios.jpeg\'), _alt="categorias, productos, ingredientes, combos, etc.",  _width="80", _height="80", _class="none"),\n\t\t\t\t\t\t\t\t\t\t_href=URL(\'ingrediente\',\'index\')), CENTER(P(B("Ingredientes"))) , _class="imgmed"))\n\tmydiv.append(DIV(A(IMG(_src=URL(\'static/images\',\'inventario.jpg\'), _alt="categorias, productos, ingredientes, combos, etc.",  _width="80", _height="80", _class="none"),\n\t\t\t\t\t\t\t\t\t\t_href=URL(\'combro\',\'index\')), CENTER(P(B("Combos"))) , _class="imgmed"))\t\n\tmydiv.append(DIV(A(IMG(_src=URL(\'static/images\',\'inventario.jpg\'), _alt="categorias, productos, ingredientes, combos, etc.",  _width="80", _height="80", _class="none"),\n\t\t\t\t\t\t\t\t\t\t_href=URL(\'ingprod\',\'index\')), CENTER(P(B("Ingred por Prod"))) , _class="imgmed"))\t\t\t\t\t\t\t\t\t\n\tmydiv.append(DIV(A(IMG(_src=URL(\'static/images\',\'inventario.jpg\'), _alt="categorias, productos, ingredientes, combos, etc.",  _width="80", _height="80", _class="none"),\n\t\t\t\t\t\t\t\t\t\t_href=URL(\'combro\',\'index\')), CENTER(P(B("Combos"))) , _class="imgmed"))\t\n\tmydiv.append(DIV(A(IMG(_src=URL(\'static/images\',\'inventario.jpg\'), _alt="categorias, productos, ingredientes, combos, etc.",  _width="80", _height="80", _class="none"),\n\t\t\t\t\t\t\t\t\t\t_href=URL(\'ingprod\',\'index\')), CENTER(P(B("Ingred por Prod"))) , _class="imgmed"))\t\t\t\t\t\n\tmydiv.append(DIV(A(IMG(_src=URL(\'static/images\',\'inventario.jpg\'), _alt="categorias, productos, ingredientes, combos, etc.",  _width="80", _height="80", _class="none"),\n\t\t\t\t\t\t\t\t\t\t_href=URL(\'combro\',\'index\')), CENTER(P(B("Combos"))) , _class="imgmed"))\t\n\tmydiv.append(DIV(A(IMG(_src=URL(\'static/images\',\'inventario.jpg\'), _alt="categorias, productos, ingredientes, combos, etc.",  _width="80", _height="80", _class="none"),\n\t\t\t\t\t\t\t\t\t\t_href=URL(\'ingprod\',\'index\')), CENTER(P(B("Ingred por Prod"))) , _class="imgmed"))\t\t\t\t\t\n\n\tsrc="$(\'#modulos\').show(\'slow\');$(\'#modulos\').width(\'550px\');"\n\tmydiv2=DIV(DIV(H1(T("Productos y Categorias")), _class="title"),XML("".join(["%s" % (k) for k in mydiv])),SCRIPT(src))\t\t\n\treturn dict(mydiv=mydiv2)\n\ndef reportes():\n\treturn dict()\n\n\ndef rptproducto():\n\n\timport subprocess\n\timport os\t\n\t\n\t# Requerido si da errores de fuentes el jasperreport\n\t#sudo apt-get install msttcorefonts\n\t#\n\t\n\n\t#vieja manera de hacerlo\n\t#ruta=\'/home/wasuaje/Documentos/desarrollo/web2py5/applications\'\n\t#reporter=ruta+URL(\'static/jasperstarter/bin\',\'jasperstarter\')\t\n\t#report=ruta+URL(\'static/reports\',\'productos.jasper\')\n\t#reportgen=ruta+URL(\'static/rpts\',session.user[\'usuario\']+\'-productos\')\n\n\t#cambio reciente para trabajar en cualquier ruta\n\treporter=os.path.join(request.folder,\'static/jasperstarter/bin\',\'jasperstarter\')   \n\t\n\treport=os.path.join(request.folder,\'static/reports\',\'productos.jasper\')   \n\treportpdf=URL(\'static/rpts\',session.user[\'usuario\']+\'-productos.pdf\')\n\t\n\treportgen=os.path.join(request.folder,\'static/rpts\',session.user[\'usuario\']+\'-productos\')\n\tcmd=\'%s pr -t mysql -H localhost -u root -p www4214 -n dbPyRest -f pdf -i %s -o %s\' % (reporter,report,reportgen)\n\t\n\tp = subprocess.check_call(cmd, shell=True)\t\n\tredirect(reportpdf)\n\t#return dict(report=reportpdf)\t\n\ndef rptproducto2():\n# Let\'s import the wrapper\n\timport pdf\n\tfrom pdf.theme import colors, DefaultTheme\n\n\t# and define a constant\n\tTABLE_WIDTH = 540 # this you cannot do in rLab which is why I wrote the helper initially\n\n    # then let\'s extend the Default theme. I need more space so I redefine the margins\n    # also I don\'t want tables, etc to break across pages (allowSplitting = False)\n    # see http://www.reportlab.com/docs/reportlab-userguide.pdf\n\tclass MyTheme(DefaultTheme):\n\t\tdoc = {\n            \'leftMargin\': 25,\n            \'rightMargin\': 25,\n            \'topMargin\': 20,\n            \'bottomMargin\': 25,\n            \'allowSplitting\': False\n            }\n            \n    # let\'s create the doc and specify title and author\n\tdoc = pdf.Pdf(\'Productos 2\', \'wuelfhis asuaje\')\n\n    # now we apply our theme\n\tdoc.set_theme(MyTheme)\n\n    # time to add the logo at the top right\n\tlogo_path = URL(\'static\',\'/images/facebook.png\')\n\tdoc.add_image(logo_path, 180, 67, pdf.RIGHT)\n\n    # give me some space\n\tdoc.add_spacer()\n    \n    # this header defaults to H1\n\tdoc.add_header(\'Productos - 2\')\n\n    # here\'s how to add a paragraph\n\tdoc.add_paragraph("We are pleased to confirm your reservation with <b>%s</b>...")\n\tdoc.add_spacer()\t\n\n\t# let\'s move on to the divers table\n\n\tdiver_table = [[\'Codigo\', \'Nombre\', \'Precio\']] # this is the header row \n\n\tfor row in db(db.in_producto.id>0).select()    \n\t\tdiver_table.append([row.codigo, row.nombre, row.importe]) # these are the other rows\n\n\tdoc.add_table(diver_table, TABLE_WIDTH)\n\n\treturn doc.render()\nresponse._vars=response._caller(rptproducto2)\n'
p7
sS'snapshot'
p8
(dp9
S'exception'
p10
(dp11
S'__getslice__'
p12
S"<method-wrapper '__getslice__' of exceptions.SyntaxError object>"
p13
sS'text'
p14
S"'\\tfor row in db(db.in_producto.id>0).select()    \\n'"
p15
sS'__str__'
p16
S"<method-wrapper '__str__' of exceptions.SyntaxError object>"
p17
sS'__reduce__'
p18
S'<built-in method __reduce__ of exceptions.SyntaxError object>'
p19
sS'__dict__'
p20
S'{}'
p21
sS'__sizeof__'
p22
S'<built-in method __sizeof__ of exceptions.SyntaxError object>'
p23
sS'__init__'
p24
S"<method-wrapper '__init__' of exceptions.SyntaxError object>"
p25
sS'__setattr__'
p26
S"<method-wrapper '__setattr__' of exceptions.SyntaxError object>"
p27
sS'__reduce_ex__'
p28
S'<built-in method __reduce_ex__ of exceptions.SyntaxError object>'
p29
sS'__new__'
p30
S'<built-in method __new__ of type object>'
p31
sS'__format__'
p32
S'<built-in method __format__ of exceptions.SyntaxError object>'
p33
sS'__class__'
p34
S"<type 'exceptions.SyntaxError'>"
p35
sS'filename'
p36
S"'/home/wasuaje/Documentos/desarrollo/web2py6/applications/PyRest/controllers/default.py'"
p37
sS'lineno'
p38
S'200'
p39
sS'msg'
p40
S"'invalid syntax'"
p41
sS'__doc__'
p42
S"'Invalid syntax.'"
p43
sS'__getitem__'
p44
S"<method-wrapper '__getitem__' of exceptions.SyntaxError object>"
p45
sS'__setstate__'
p46
S'<built-in method __setstate__ of exceptions.SyntaxError object>'
p47
sS'__getattribute__'
p48
S"<method-wrapper '__getattribute__' of exceptions.SyntaxError object>"
p49
sS'print_file_and_line'
p50
S'None'
p51
sS'args'
p52
S"('invalid syntax', ('/home/wasuaje/Documentos/desarrollo/web2py6/applications/PyRest/controllers/default.py', 200, 49, '\\tfor row in db(db.in_producto.id>0).select()    \\n'))"
p53
sS'__subclasshook__'
p54
S'<built-in method __subclasshook__ of type object>'
p55
sS'offset'
p56
S'49'
p57
sS'__unicode__'
p58
S'<built-in method __unicode__ of exceptions.SyntaxError object>'
p59
sS'__delattr__'
p60
S"<method-wrapper '__delattr__' of exceptions.SyntaxError object>"
p61
sS'__repr__'
p62
S"<method-wrapper '__repr__' of exceptions.SyntaxError object>"
p63
sS'__hash__'
p64
S"<method-wrapper '__hash__' of exceptions.SyntaxError object>"
p65
ssS'evalue'
p66
S'invalid syntax (default.py, line 200)'
p67
sS'request'
p68
cgluon.html
XML_unpickle
p69
(S's\x0bl\x00\x00<div><table><tr><td style="font-weight:bold;vertical-align:top;">ajax</td><td style="vertical-align:top;">:</td><td><div>False</div></td></tr><tr><td style="font-weight:bold;vertical-align:top;">application</td><td style="vertical-align:top;">:</td><td><div>PyRest</div></td></tr><tr><td style="font-weight:bold;vertical-align:top;">args</td><td style="vertical-align:top;">:</td><td><div><table></table></div></td></tr><tr><td style="font-weight:bold;vertical-align:top;">cid</td><td style="vertical-align:top;">:</td><td><div>None</div></td></tr><tr><td style="font-weight:bold;vertical-align:top;">client</td><td style="vertical-align:top;">:</td><td><div>127.0.0.1</div></td></tr><tr><td style="font-weight:bold;vertical-align:top;">controller</td><td style="vertical-align:top;">:</td><td><div>default</div></td></tr><tr><td style="font-weight:bold;vertical-align:top;">cookies</td><td style="vertical-align:top;">:</td><td><div><table><tr><td style="font-weight:bold;vertical-align:top;">session_id_admin</td><td style="vertical-align:top;">:</td><td><div>127.0.0.1-f9b027ab-ba37-4111-8884-360d664bf65b<table><tr><td style="font-weight:bold;vertical-align:top;">comment</td><td style="vertical-align:top;">:</td><td><div></div></td></tr><tr><td style="font-weight:bold;vertical-align:top;">domain</td><td style="vertical-align:top;">:</td><td><div></div></td></tr><tr><td style="font-weight:bold;vertical-align:top;">expires</td><td style="vertical-align:top;">:</td><td><div></div></td></tr><tr><td style="font-weight:bold;vertical-align:top;">httponly</td><td style="vertical-align:top;">:</td><td><div></div></td></tr><tr><td style="font-weight:bold;vertical-align:top;">max-age</td><td style="vertical-align:top;">:</td><td><div></div></td></tr><tr><td style="font-weight:bold;vertical-align:top;">path</td><td style="vertical-align:top;">:</td><td><div></div></td></tr><tr><td style="font-weight:bold;vertical-align:top;">secure</td><td style="vertical-align:top;">:</td><td><div></div></td></tr><tr><td style="font-weight:bold;vertical-align:top;">version</td><td style="vertical-align:top;">:</td><td><div></div></td></tr></table></div></td></tr><tr><td style="font-weight:bold;vertical-align:top;">session_id_admotion</td><td style="vertical-align:top;">:</td><td><div>127.0.0.1-6d0bdac9-d836-42e8-8835-d46f7a093aba<table><tr><td style="font-weight:bold;vertical-align:top;">comment</td><td style="vertical-align:top;">:</td><td><div></div></td></tr><tr><td style="font-weight:bold;vertical-align:top;">domain</td><td style="vertical-align:top;">:</td><td><div></div></td></tr><tr><td style="font-weight:bold;vertical-align:top;">expires</td><td style="vertical-align:top;">:</td><td><div></div></td></tr><tr><td style="font-weight:bold;vertical-align:top;">httponly</td><td style="vertical-align:top;">:</td><td><div></div></td></tr><tr><td style="font-weight:bold;vertical-align:top;">max-age</td><td style="vertical-align:top;">:</td><td><div></div></td></tr><tr><td style="font-weight:bold;vertical-align:top;">path</td><td style="vertical-align:top;">:</td><td><div></div></td></tr><tr><td style="font-weight:bold;vertical-align:top;">secure</td><td style="vertical-align:top;">:</td><td><div></div></td></tr><tr><td style="font-weight:bold;vertical-align:top;">version</td><td style="vertical-align:top;">:</td><td><div></div></td></tr></table></div></td></tr><tr><td style="font-weight:bold;vertical-align:top;">session_id_pycitas</td><td style="vertical-align:top;">:</td><td><div>127.0.0.1-1238f230-7dd7-4ba9-88a3-0b8f730beae7<table><tr><td style="font-weight:bold;vertical-align:top;">comment</td><td style="vertical-align:top;">:</td><td><div></div></td></tr><tr><td style="font-weight:bold;vertical-align:top;">domain</td><td style="vertical-align:top;">:</td><td><div></div></td></tr><tr><td style="font-weight:bold;vertical-align:top;">expires</td><td style="vertical-align:top;">:</td><td><div></div></td></tr><tr><td style="font-weight:bold;vertical-align:top;">httponly</td><td style="vertical-align:top;">:</td><td><div></div></td></tr><tr><td style="font-weight:bold;vertical-align:top;">max-age</td><td style="vertical-align:top;">:</td><td><div></div></td></tr><tr><td style="font-weight:bold;vertical-align:top;">path</td><td style="vertical-align:top;">:</td><td><div></div></td></tr><tr><td style="font-weight:bold;vertical-align:top;">secure</td><td style="vertical-align:top;">:</td><td><div></div></td></tr><tr><td style="font-weight:bold;vertical-align:top;">version</td><td style="vertical-align:top;">:</td><td><div></div></td></tr></table></div></td></tr><tr><td style="font-weight:bold;vertical-align:top;">session_id_pyrest</td><td style="vertical-align:top;">:</td><td><div>127.0.0.1-359e15a4-f5d2-4bc3-bd0a-e255459a1a44<table><tr><td style="font-weight:bold;vertical-align:top;">comment</td><td style="vertical-align:top;">:</td><td><div></div></td></tr><tr><td style="font-weight:bold;vertical-align:top;">domain</td><td style="vertical-align:top;">:</td><td><div></div></td></tr><tr><td style="font-weight:bold;vertical-align:top;">expires</td><td style="vertical-align:top;">:</td><td><div></div></td></tr><tr><td style="font-weight:bold;vertical-align:top;">httponly</td><td style="vertical-align:top;">:</td><td><div></div></td></tr><tr><td style="font-weight:bold;vertical-align:top;">max-age</td><td style="vertical-align:top;">:</td><td><div></div></td></tr><tr><td style="font-weight:bold;vertical-align:top;">path</td><td style="vertical-align:top;">:</td><td><div></div></td></tr><tr><td style="font-weight:bold;vertical-align:top;">secure</td><td style="vertical-align:top;">:</td><td><div></div></td></tr><tr><td style="font-weight:bold;vertical-align:top;">version</td><td style="vertical-align:top;">:</td><td><div></div></td></tr></table></div></td></tr><tr><td style="font-weight:bold;vertical-align:top;">session_id_pysalon</td><td style="vertical-align:top;">:</td><td><div>127.0.0.1-3c2d113a-1894-435d-ae7c-f870c9460af7<table><tr><td style="font-weight:bold;vertical-align:top;">comment</td><td style="vertical-align:top;">:</td><td><div></div></td></tr><tr><td style="font-weight:bold;vertical-align:top;">domain</td><td style="vertical-align:top;">:</td><td><div></div></td></tr><tr><td style="font-weight:bold;vertical-align:top;">expires</td><td style="vertical-align:top;">:</td><td><div></div></td></tr><tr><td style="font-weight:bold;vertical-align:top;">httponly</td><td style="vertical-align:top;">:</td><td><div></div></td></tr><tr><td style="font-weight:bold;vertical-align:top;">max-age</td><td style="vertical-align:top;">:</td><td><div></div></td></tr><tr><td style="font-weight:bold;vertical-align:top;">path</td><td style="vertical-align:top;">:</td><td><div></div></td></tr><tr><td style="font-weight:bold;vertical-align:top;">secure</td><td style="vertical-align:top;">:</td><td><div></div></td></tr><tr><td style="font-weight:bold;vertical-align:top;">version</td><td style="vertical-align:top;">:</td><td><div></div></td></tr></table></div></td></tr><tr><td style="font-weight:bold;vertical-align:top;">session_id_welcome</td><td style="vertical-align:top;">:</td><td><div>127.0.0.1-e7d69a22-bbe2-4e27-be44-440c4375f796<table><tr><td style="font-weight:bold;vertical-align:top;">comment</td><td style="vertical-align:top;">:</td><td><div></div></td></tr><tr><td style="font-weight:bold;vertical-align:top;">domain</td><td style="vertical-align:top;">:</td><td><div></div></td></tr><tr><td style="font-weight:bold;vertical-align:top;">expires</td><td style="vertical-align:top;">:</td><td><div></div></td></tr><tr><td style="font-weight:bold;vertical-align:top;">httponly</td><td style="vertical-align:top;">:</td><td><div></div></td></tr><tr><td style="font-weight:bold;vertical-align:top;">max-age</td><td style="vertical-align:top;">:</td><td><div></div></td></tr><tr><td style="font-weight:bold;vertical-align:top;">path</td><td style="vertical-align:top;">:</td><td><div></div></td></tr><tr><td style="font-weight:bold;vertical-align:top;">secure</td><td style="vertical-align:top;">:</td><td><div></div></td></tr><tr><td style="font-weight:bold;vertical-align:top;">version</td><td style="vertical-align:top;">:</td><td><div></div></td></tr></table></div></td></tr></table></div></td></tr><tr><td style="font-weight:bold;vertical-align:top;">env</td><td style="vertical-align:top;">:</td><td><div><table><tr><td style="font-weight:bold;vertical-align:top;">HTTP_ACCEPT</td><td style="vertical-align:top;">:</td><td><div>text/html,application/xhtml+xml,application/xml;q=0.9,*/*;q=0.8</div></td></tr><tr><td style="font-weight:bold;vertical-align:top;">HTTP_ACCEPT_ENCODING</td><td style="vertical-align:top;">:</td><td><div>gzip, deflate</div></td></tr><tr><td style="font-weight:bold;vertical-align:top;">HTTP_ACCEPT_LANGUAGE</td><td style="vertical-align:top;">:</td><td><div>es-MX,es-ES;q=0.8,es-AR;q=0.7,es;q=0.5,en-US;q=0.3,en;q=0.2</div></td></tr><tr><td style="font-weight:bold;vertical-align:top;">HTTP_CACHE_CONTROL</td><td style="vertical-align:top;">:</td><td><div>max-age=0</div></td></tr><tr><td style="font-weight:bold;vertical-align:top;">HTTP_CONNECTION</td><td style="vertical-align:top;">:</td><td><div>keep-alive</div></td></tr><tr><td style="font-weight:bold;vertical-align:top;">HTTP_COOKIE</td><td style="vertical-align:top;">:</td><td><div>session_id_pyrest=127.0.0.1-359e15a4-f5d2-4bc3-bd0a-e255459a1a44; session_id_welcome=127.0.0.1-e7d69a22-bbe2-4e27-be44-440c4375f796; session_id_admin=127.0.0.1-f9b027ab-ba37-4111-8884-360d664bf65b; session_id_admotion=127.0.0.1-6d0bdac9-d836-42e8-8835-d46f7a093aba; session_id_pycitas=127.0.0.1-1238f230-7dd7-4ba9-88a3-0b8f730beae7; session_id_pysalon=127.0.0.1-3c2d113a-1894-435d-ae7c-f870c9460af7</div></td></tr><tr><td style="font-weight:bold;vertical-align:top;">HTTP_HOST</td><td style="vertical-align:top;">:</td><td><div>localhost:8000</div></td></tr><tr><td style="font-weight:bold;vertical-align:top;">HTTP_REFERER</td><td style="vertical-align:top;">:</td><td><div>http://localhost:8000/PyRest/default/reportes</div></td></tr><tr><td style="font-weight:bold;vertical-align:top;">HTTP_USER_AGENT</td><td style="vertical-align:top;">:</td><td><div>Mozilla/5.0 (X11; Ubuntu; Linux i686; rv:29.0) Gecko/20100101 Firefox/29.0</div></td></tr><tr><td style="font-weight:bold;vertical-align:top;">PATH_INFO</td><td style="vertical-align:top;">:</td><td><div>/PyRest/default/rptproducto2</div></td></tr><tr><td style="font-weight:bold;vertical-align:top;">QUERY_STRING</td><td style="vertical-align:top;">:</td><td><div></div></td></tr><tr><td style="font-weight:bold;vertical-align:top;">REMOTE_ADDR</td><td style="vertical-align:top;">:</td><td><div>127.0.0.1</div></td></tr><tr><td style="font-weight:bold;vertical-align:top;">REMOTE_PORT</td><td style="vertical-align:top;">:</td><td><div>37317</div></td></tr><tr><td style="font-weight:bold;vertical-align:top;">REQUEST_METHOD</td><td style="vertical-align:top;">:</td><td><div>GET</div></td></tr><tr><td style="font-weight:bold;vertical-align:top;">SCRIPT_NAME</td><td style="vertical-align:top;">:</td><td><div></div></td></tr><tr><td style="font-weight:bold;vertical-align:top;">SERVER_NAME</td><td style="vertical-align:top;">:</td><td><div>wasuaje-desktop</div></td></tr><tr><td style="font-weight:bold;vertical-align:top;">SERVER_PORT</td><td style="vertical-align:top;">:</td><td><div>8000</div></td></tr><tr><td style="font-weight:bold;vertical-align:top;">SERVER_PROTOCOL</td><td style="vertical-align:top;">:</td><td><div>HTTP/1.1</div></td></tr><tr><td style="font-weight:bold;vertical-align:top;">SERVER_SOFTWARE</td><td style="vertical-align:top;">:</td><td><div>Rocket 1.2.6</div></td></tr><tr><td style="font-weight:bold;vertical-align:top;">app_folders</td><td style="vertical-align:top;">:</td><td><div>set([&#x27;/home/wasuaje/Documentos/desarrollo/web2py6/applications/PyRest/&#x27;, &#x27;/home/wasuaje/Documentos/desarrollo/web2py6/applications/admin/&#x27;, &#x27;/home/wasuaje/Documentos/desarrollo/web2py6/applications/pysalon/&#x27;])</div></td></tr><tr><td style="font-weight:bold;vertical-align:top;">applications_parent</td><td style="vertical-align:top;">:</td><td><div>/home/wasuaje/Documentos/desarrollo/web2py6</div></td></tr><tr><td style="font-weight:bold;vertical-align:top;">cmd_args</td><td style="vertical-align:top;">:</td><td><div><table></table></div></td></tr><tr><td style="font-weight:bold;vertical-align:top;">cmd_options</td><td style="vertical-align:top;">:</td><td><div>&lt;Values at 0xa09bc4c: {&#x27;verbose&#x27;: False, &#x27;ip&#x27;: &#x27;127.0.0.1&#x27;, &#x27;debuglevel&#x27;: 30, &#x27;with_scheduler&#x27;: False, &#x27;ips&#x27;: [&#x27;127.0.1.1&#x27;], &#x27;shutdown_timeout&#x27;: 5, &#x27;taskbar&#x27;: False, &#x27;with_coverage&#x27;: False, &#x27;port&#x27;: 8000, &#x27;maxthreads&#x27;: None, &#x27;softcron&#x27;: False, &#x27;server_name&#x27;: &#x27;wasuaje-desktop&#x27;, &#x27;bpython&#x27;: False, &#x27;nogui&#x27;: False, &#x27;pid_filename&#x27;: &#x27;httpserver.pid&#x27;, &#x27;extcron&#x27;: False, &#x27;runcron&#x27;: False, &#x27;run_system_tests&#x27;: False, &#x27;test&#x27;: None, &#x27;folder&#x27;: &#x27;/home/wasuaje/Documentos/desarrollo/web2py6&#x27;, &#x27;config&#x27;: &#x27;&#x27;, &#x27;minthreads&#x27;: None, &#x27;shell&#x27;: None, &#x27;run&#x27;: &#x27;&#x27;, &#x27;log_filename&#x27;: &#x27;httpserver.log&#x27;, &#x27;profiler_dir&#x27;: None, &#x27;args&#x27;: [&#x27;&#x27;], &#x27;socket_timeout&#x27;: 5, &#x27;ssl_ca_certificate&#x27;: None, &#x27;scheduler&#x27;: None, &#x27;interfaces&#x27;: None, &#x27;ssl_private_key&#x27;: &#x27;&#x27;, &#x27;scheduler_groups&#x27;: None, &#x27;password&#x27;: &#x27;w&#x27;, &#x27;request_queue_size&#x27;: 5, &#x27;ssl_certificate&#x27;: &#x27;&#x27;, &#x27;cronjob&#x27;: False, &#x27;numthreads&#x27;: None, &#x27;quiet&#x27;: False, &#x27;import_models&#x27;: False, &#x27;timeout&#x27;: 10, &#x27;plain&#x27;: False, &#x27;nobanner&#x27;: False}&gt;</div></td></tr><tr><td style="font-weight:bold;vertical-align:top;">db_sessions</td><td style="vertical-align:top;">:</td><td><div>set([])</div></td></tr><tr><td style="font-weight:bold;vertical-align:top;">debugging</td><td style="vertical-align:top;">:</td><td><div>False</div></td></tr><tr><td style="font-weight:bold;vertical-align:top;">gluon_parent</td><td style="vertical-align:top;">:</td><td><div>/home/wasuaje/Documentos/desarrollo/web2py6</div></td></tr><tr><td style="font-weight:bold;vertical-align:top;">http_accept</td><td style="vertical-align:top;">:</td><td><div>text/html,application/xhtml+xml,application/xml;q=0.9,*/*;q=0.8</div></td></tr><tr><td style="font-weight:bold;vertical-align:top;">http_accept_encoding</td><td style="vertical-align:top;">:</td><td><div>gzip, deflate</div></td></tr><tr><td style="font-weight:bold;vertical-align:top;">http_accept_language</td><td style="vertical-align:top;">:</td><td><div>es-MX,es-ES;q=0.8,es-AR;q=0.7,es;q=0.5,en-US;q=0.3,en;q=0.2</div></td></tr><tr><td style="font-weight:bold;vertical-align:top;">http_cache_control</td><td style="vertical-align:top;">:</td><td><div>max-age=0</div></td></tr><tr><td style="font-weight:bold;vertical-align:top;">http_connection</td><td style="vertical-align:top;">:</td><td><div>keep-alive</div></td></tr><tr><td style="font-weight:bold;vertical-align:top;">http_cookie</td><td style="vertical-align:top;">:</td><td><div>session_id_pyrest=127.0.0.1-359e15a4-f5d2-4bc3-bd0a-e255459a1a44; session_id_welcome=127.0.0.1-e7d69a22-bbe2-4e27-be44-440c4375f796; session_id_admin=127.0.0.1-f9b027ab-ba37-4111-8884-360d664bf65b; session_id_admotion=127.0.0.1-6d0bdac9-d836-42e8-8835-d46f7a093aba; session_id_pycitas=127.0.0.1-1238f230-7dd7-4ba9-88a3-0b8f730beae7; session_id_pysalon=127.0.0.1-3c2d113a-1894-435d-ae7c-f870c9460af7</div></td></tr><tr><td style="font-weight:bold;vertical-align:top;">http_host</td><td style="vertical-align:top;">:</td><td><div>localhost:8000</div></td></tr><tr><td style="font-weight:bold;vertical-align:top;">http_referer</td><td style="vertical-align:top;">:</td><td><div>http://localhost:8000/PyRest/default/reportes</div></td></tr><tr><td style="font-weight:bold;vertical-align:top;">http_user_agent</td><td style="vertical-align:top;">:</td><td><div>Mozilla/5.0 (X11; Ubuntu; Linux i686; rv:29.0) Gecko/20100101 Firefox/29.0</div></td></tr><tr><td style="font-weight:bold;vertical-align:top;">is_jython</td><td style="vertical-align:top;">:</td><td><div>False</div></td></tr><tr><td style="font-weight:bold;vertical-align:top;">is_pypy</td><td style="vertical-align:top;">:</td><td><div>False</div></td></tr><tr><td style="font-weight:bold;vertical-align:top;">is_source</td><td style="vertical-align:top;">:</td><td><div>True</div></td></tr><tr><td style="font-weight:bold;vertical-align:top;">local_hosts</td><td style="vertical-align:top;">:</td><td><div><table><tr><td><div>127.0.1.1</div></td></tr><tr><td><div>::1</div></td></tr><tr><td><div>wasuaje-desktop</div></td></tr><tr><td><div>::ffff:127.0.0.1</div></td></tr><tr><td><div>127.0.0.1</div></td></tr></table></div></td></tr><tr><td style="font-weight:bold;vertical-align:top;">path_info</td><td style="vertical-align:top;">:</td><td><div>/PyRest/default/rptproducto2</div></td></tr><tr><td style="font-weight:bold;vertical-align:top;">query_string</td><td style="vertical-align:top;">:</td><td><div></div></td></tr><tr><td style="font-weight:bold;vertical-align:top;">remote_addr</td><td style="vertical-align:top;">:</td><td><div>127.0.0.1</div></td></tr><tr><td style="font-weight:bold;vertical-align:top;">remote_port</td><td style="vertical-align:top;">:</td><td><div>37317</div></td></tr><tr><td style="font-weight:bold;vertical-align:top;">request_method</td><td style="vertical-align:top;">:</td><td><div>GET</div></td></tr><tr><td style="font-weight:bold;vertical-align:top;">request_uri</td><td style="vertical-align:top;">:</td><td><div>/PyRest/default/rptproducto2</div></td></tr><tr><td style="font-weight:bold;vertical-align:top;">script_name</td><td style="vertical-align:top;">:</td><td><div></div></td></tr><tr><td style="font-weight:bold;vertical-align:top;">server_name</td><td style="vertical-align:top;">:</td><td><div>wasuaje-desktop</div></td></tr><tr><td style="font-weight:bold;vertical-align:top;">server_port</td><td style="vertical-align:top;">:</td><td><div>8000</div></td></tr><tr><td style="font-weight:bold;vertical-align:top;">server_protocol</td><td style="vertical-align:top;">:</td><td><div>HTTP/1.1</div></td></tr><tr><td style="font-weight:bold;vertical-align:top;">server_software</td><td style="vertical-align:top;">:</td><td><div>Rocket 1.2.6</div></td></tr><tr><td style="font-weight:bold;vertical-align:top;">web2py_path</td><td style="vertical-align:top;">:</td><td><div>/home/wasuaje/Documentos/desarrollo/web2py6</div></td></tr><tr><td style="font-weight:bold;vertical-align:top;">web2py_version</td><td style="vertical-align:top;">:</td><td><div>2.9.5-stable+timestamp.2014.03.16.02.35.39</div></td></tr><tr><td style="font-weight:bold;vertical-align:top;">wsgi.errors</td><td style="vertical-align:top;">:</td><td><div>&lt;open file &#x27;&lt;stderr&gt;&#x27;, mode &#x27;w&#x27; at 0xb74ac0d0&gt;</div></td></tr><tr><td style="font-weight:bold;vertical-align:top;">wsgi.file_wrapper</td><td style="vertical-align:top;">:</td><td><div>&lt;class wsgiref.util.FileWrapper at 0xa05aa1c&gt;</div></td></tr><tr><td style="font-weight:bold;vertical-align:top;">wsgi.input</td><td style="vertical-align:top;">:</td><td><div>&lt;socket._fileobject object at 0xad8c832c&gt;</div></td></tr><tr><td style="font-weight:bold;vertical-align:top;">wsgi.multiprocess</td><td style="vertical-align:top;">:</td><td><div>False</div></td></tr><tr><td style="font-weight:bold;vertical-align:top;">wsgi.multithread</td><td style="vertical-align:top;">:</td><td><div>True</div></td></tr><tr><td style="font-weight:bold;vertical-align:top;">wsgi.run_once</td><td style="vertical-align:top;">:</td><td><div>False</div></td></tr><tr><td style="font-weight:bold;vertical-align:top;">wsgi.url_scheme</td><td style="vertical-align:top;">:</td><td><div>http</div></td></tr><tr><td style="font-weight:bold;vertical-align:top;">wsgi.version</td><td style="vertical-align:top;">:</td><td><div><table><tr><td><div>1</div></td></tr><tr><td><div>0</div></td></tr></table></div></td></tr><tr><td style="font-weight:bold;vertical-align:top;">wsgi_errors</td><td style="vertical-align:top;">:</td><td><div>&lt;open file &#x27;&lt;stderr&gt;&#x27;, mode &#x27;w&#x27; at 0xb74ac0d0&gt;</div></td></tr><tr><td style="font-weight:bold;vertical-align:top;">wsgi_file_wrapper</td><td style="vertical-align:top;">:</td><td><div>&lt;class wsgiref.util.FileWrapper at 0xa05aa1c&gt;</div></td></tr><tr><td style="font-weight:bold;vertical-align:top;">wsgi_input</td><td style="vertical-align:top;">:</td><td><div>&lt;socket._fileobject object at 0xad8c832c&gt;</div></td></tr><tr><td style="font-weight:bold;vertical-align:top;">wsgi_multiprocess</td><td style="vertical-align:top;">:</td><td><div>False</div></td></tr><tr><td style="font-weight:bold;vertical-align:top;">wsgi_multithread</td><td style="vertical-align:top;">:</td><td><div>True</div></td></tr><tr><td style="font-weight:bold;vertical-align:top;">wsgi_run_once</td><td style="vertical-align:top;">:</td><td><div>False</div></td></tr><tr><td style="font-weight:bold;vertical-align:top;">wsgi_url_scheme</td><td style="vertical-align:top;">:</td><td><div>http</div></td></tr><tr><td style="font-weight:bold;vertical-align:top;">wsgi_version</td><td style="vertical-align:top;">:</td><td><div><table><tr><td><div>1</div></td></tr><tr><td><div>0</div></td></tr></table></div></td></tr></table></div></td></tr><tr><td style="font-weight:bold;vertical-align:top;">extension</td><td style="vertical-align:top;">:</td><td><div>html</div></td></tr><tr><td style="font-weight:bold;vertical-align:top;">folder</td><td style="vertical-align:top;">:</td><td><div>/home/wasuaje/Documentos/desarrollo/web2py6/applications/PyRest/</div></td></tr><tr><td style="font-weight:bold;vertical-align:top;">function</td><td style="vertical-align:top;">:</td><td><div>rptproducto2</div></td></tr><tr><td style="font-weight:bold;vertical-align:top;">global_settings</td><td style="vertical-align:top;">:</td><td><div><table><tr><td style="font-weight:bold;vertical-align:top;">app_folders</td><td style="vertical-align:top;">:</td><td><div>set([&#x27;/home/wasuaje/Documentos/desarrollo/web2py6/applications/PyRest/&#x27;, &#x27;/home/wasuaje/Documentos/desarrollo/web2py6/applications/admin/&#x27;, &#x27;/home/wasuaje/Documentos/desarrollo/web2py6/applications/pysalon/&#x27;])</div></td></tr><tr><td style="font-weight:bold;vertical-align:top;">applications_parent</td><td style="vertical-align:top;">:</td><td><div>/home/wasuaje/Documentos/desarrollo/web2py6</div></td></tr><tr><td style="font-weight:bold;vertical-align:top;">cmd_args</td><td style="vertical-align:top;">:</td><td><div><table></table></div></td></tr><tr><td style="font-weight:bold;vertical-align:top;">cmd_options</td><td style="vertical-align:top;">:</td><td><div>&lt;Values at 0xa09bc4c: {&#x27;verbose&#x27;: False, &#x27;ip&#x27;: &#x27;127.0.0.1&#x27;, &#x27;debuglevel&#x27;: 30, &#x27;with_scheduler&#x27;: False, &#x27;ips&#x27;: [&#x27;127.0.1.1&#x27;], &#x27;shutdown_timeout&#x27;: 5, &#x27;taskbar&#x27;: False, &#x27;with_coverage&#x27;: False, &#x27;port&#x27;: 8000, &#x27;maxthreads&#x27;: None, &#x27;softcron&#x27;: False, &#x27;server_name&#x27;: &#x27;wasuaje-desktop&#x27;, &#x27;bpython&#x27;: False, &#x27;nogui&#x27;: False, &#x27;pid_filename&#x27;: &#x27;httpserver.pid&#x27;, &#x27;extcron&#x27;: False, &#x27;runcron&#x27;: False, &#x27;run_system_tests&#x27;: False, &#x27;test&#x27;: None, &#x27;folder&#x27;: &#x27;/home/wasuaje/Documentos/desarrollo/web2py6&#x27;, &#x27;config&#x27;: &#x27;&#x27;, &#x27;minthreads&#x27;: None, &#x27;shell&#x27;: None, &#x27;run&#x27;: &#x27;&#x27;, &#x27;log_filename&#x27;: &#x27;httpserver.log&#x27;, &#x27;profiler_dir&#x27;: None, &#x27;args&#x27;: [&#x27;&#x27;], &#x27;socket_timeout&#x27;: 5, &#x27;ssl_ca_certificate&#x27;: None, &#x27;scheduler&#x27;: None, &#x27;interfaces&#x27;: None, &#x27;ssl_private_key&#x27;: &#x27;&#x27;, &#x27;scheduler_groups&#x27;: None, &#x27;password&#x27;: &#x27;w&#x27;, &#x27;request_queue_size&#x27;: 5, &#x27;ssl_certificate&#x27;: &#x27;&#x27;, &#x27;cronjob&#x27;: False, &#x27;numthreads&#x27;: None, &#x27;quiet&#x27;: False, &#x27;import_models&#x27;: False, &#x27;timeout&#x27;: 10, &#x27;plain&#x27;: False, &#x27;nobanner&#x27;: False}&gt;</div></td></tr><tr><td style="font-weight:bold;vertical-align:top;">db_sessions</td><td style="vertical-align:top;">:</td><td><div>set([])</div></td></tr><tr><td style="font-weight:bold;vertical-align:top;">debugging</td><td style="vertical-align:top;">:</td><td><div>False</div></td></tr><tr><td style="font-weight:bold;vertical-align:top;">gluon_parent</td><td style="vertical-align:top;">:</td><td><div>/home/wasuaje/Documentos/desarrollo/web2py6</div></td></tr><tr><td style="font-weight:bold;vertical-align:top;">is_jython</td><td style="vertical-align:top;">:</td><td><div>False</div></td></tr><tr><td style="font-weight:bold;vertical-align:top;">is_pypy</td><td style="vertical-align:top;">:</td><td><div>False</div></td></tr><tr><td style="font-weight:bold;vertical-align:top;">is_source</td><td style="vertical-align:top;">:</td><td><div>True</div></td></tr><tr><td style="font-weight:bold;vertical-align:top;">local_hosts</td><td style="vertical-align:top;">:</td><td><div><table><tr><td><div>127.0.1.1</div></td></tr><tr><td><div>::1</div></td></tr><tr><td><div>wasuaje-desktop</div></td></tr><tr><td><div>::ffff:127.0.0.1</div></td></tr><tr><td><div>127.0.0.1</div></td></tr></table></div></td></tr><tr><td style="font-weight:bold;vertical-align:top;">web2py_version</td><td style="vertical-align:top;">:</td><td><div>2.9.5-stable+timestamp.2014.03.16.02.35.39</div></td></tr></table></div></td></tr><tr><td style="font-weight:bold;vertical-align:top;">is_https</td><td style="vertical-align:top;">:</td><td><div>False</div></td></tr><tr><td style="font-weight:bold;vertical-align:top;">is_local</td><td style="vertical-align:top;">:</td><td><div>True</div></td></tr><tr><td style="font-weight:bold;vertical-align:top;">is_restful</td><td style="vertical-align:top;">:</td><td><div>False</div></td></tr><tr><td style="font-weight:bold;vertical-align:top;">now</td><td style="vertical-align:top;">:</td><td><div>datetime.datetime(2014, 5, 5, 16, 37, 45, 458739)</div></td></tr><tr><td style="font-weight:bold;vertical-align:top;">raw_args</td><td style="vertical-align:top;">:</td><td><div></div></td></tr><tr><td style="font-weight:bold;vertical-align:top;">raw_extension</td><td style="vertical-align:top;">:</td><td><div>None</div></td></tr><tr><td style="font-weight:bold;vertical-align:top;">url</td><td style="vertical-align:top;">:</td><td><div>/PyRest/default/rptproducto2</div></td></tr><tr><td style="font-weight:bold;vertical-align:top;">utcnow</td><td style="vertical-align:top;">:</td><td><div>datetime.datetime(2014, 5, 5, 21, 7, 45, 458769)</div></td></tr><tr><td style="font-weight:bold;vertical-align:top;">uuid</td><td style="vertical-align:top;">:</td><td><div>PyRest/127.0.0.1.2014-05-05.16-37-45.0b8c5060-34dc-4b37-b35c-9a6f7bec4b79</div></td></tr><tr><td style="font-weight:bold;vertical-align:top;">wsgi</td><td style="vertical-align:top;">:</td><td><div>&lt;gluon.main.LazyWSGI object at 0xacfabe0c&gt;</div></td></tr></table></div>'
tRp70
sS'frames'
p71
(lp72
(dp73
S'file'
p74
S'/home/wasuaje/Documentos/desarrollo/web2py6/gluon/restricted.py'
p75
sS'dump'
p76
(dp77
S'code'
p78
S"'# -*- coding: utf-8 -*-\\n### required - do no del...()\\nresponse._vars=response._caller(rptproducto2)\\n'"
p79
sS'layer'
p80
S"'/home/wasuaje/Documentos/desarrollo/web2py6/applications/PyRest/controllers/default.py'"
p81
sS'global compile2'
p82
S'<function compile2>'
p83
sS'ccode'
p84
S'undefined'
p85
ssS'lnum'
p86
I219
sS'lines'
p87
(dp88
I214
S"    environment['__name__'] = '__restricted__'"
p89
sI215
S'    try:'
p90
sI216
S'        if isinstance(code, types.CodeType):'
p91
sI217
S'            ccode = code'
p92
sI218
S'        else:'
p93
sI219
S'            ccode = compile2(code, layer)'
p94
sI220
S'        exec ccode in environment'
p95
sI221
S'    except HTTP:'
p96
sI222
S'        raise'
p97
sI223
S'    except RestrictedError:'
p98
ssS'call'
p99
S"(code='# -*- coding: utf-8 -*-\\n### required - do no del...()\\nresponse._vars=response._caller(rptproducto2)\\n', environment={'A': <class 'gluon.html.A'>, 'ANY_OF': <class 'gluon.validators.ANY_OF'>, 'Auth': <class 'gluon.tools.Auth'>, 'B': <class 'gluon.html.B'>, 'BEAUTIFY': <class 'gluon.html.BEAUTIFY'>, 'BODY': <class 'gluon.html.BODY'>, 'BR': <class 'gluon.html.BR'>, 'BUTTON': <class 'gluon.html.BUTTON'>, 'CAT': <class 'gluon.html.CAT'>, 'CENTER': <class 'gluon.html.CENTER'>, ...}, layer='/home/wasuaje/Documentos/desarrollo/web2py6/applications/PyRest/controllers/default.py')"
p100
sS'func'
p101
S'restricted'
p102
sa(dp103
g74
S'/home/wasuaje/Documentos/desarrollo/web2py6/gluon/restricted.py'
p104
sg76
(dp105
S'builtincompile'
p106
S'<built-in function compile>'
p107
sS'code'
p108
S"'# -*- coding: utf-8 -*-\\n### required - do no del...()\\nresponse._vars=response._caller(rptproducto2)\\n'"
p109
sS'code.rstrip'
p110
S'<built-in method rstrip of str object>'
p111
sS').replace'
p112
g85
sS'layer'
p113
S"'/home/wasuaje/Documentos/desarrollo/web2py6/applications/PyRest/controllers/default.py'"
p114
ssg86
I202
sg87
(dp115
I197
S''
sI198
S'def compile2(code, layer):'
p116
sI199
S'    """'
p117
sI200
S"    The +'\\n' is necessary else compile fails when code ends in a comment."
p118
sI201
S'    """'
p119
sI202
S"    return compile(code.rstrip().replace('\\r\\n', '\\n') + '\\n', layer, 'exec')"
p120
sI203
S''
sI204
S''
sI205
S"def restricted(code, environment=None, layer='Unknown'):"
p121
sI206
S'    """'
p122
ssg99
S"(code='# -*- coding: utf-8 -*-\\n### required - do no del...()\\nresponse._vars=response._caller(rptproducto2)\\n', layer='/home/wasuaje/Documentos/desarrollo/web2py6/applications/PyRest/controllers/default.py')"
p123
sg101
S'compile2'
p124
sasS'pyver'
p125
S'Python 2.7.5+: /usr/bin/python (prefix: /usr)'
p126
sS'session'
p127
g69
(S's\xd4\x06\x00\x00<div><table><tr><td style="font-weight:bold;vertical-align:top;">empresa</td><td style="vertical-align:top;">:</td><td><div><table><tr><td style="font-weight:bold;vertical-align:top;">direccion</td><td style="vertical-align:top;">:</td><td><div>La Candelaria Esq. de Animas</div></td></tr><tr><td style="font-weight:bold;vertical-align:top;">email</td><td style="vertical-align:top;">:</td><td><div>resta@gmail.com</div></td></tr><tr><td style="font-weight:bold;vertical-align:top;">id</td><td style="vertical-align:top;">:</td><td><div>1L</div></td></tr><tr><td style="font-weight:bold;vertical-align:top;">nit</td><td style="vertical-align:top;">:</td><td><div></div></td></tr><tr><td style="font-weight:bold;vertical-align:top;">nombre</td><td style="vertical-align:top;">:</td><td><div>Restaurant 1</div></td></tr><tr><td style="font-weight:bold;vertical-align:top;">razon</td><td style="vertical-align:top;">:</td><td><div>Restaurant 1</div></td></tr><tr><td style="font-weight:bold;vertical-align:top;">rif</td><td style="vertical-align:top;">:</td><td><div>J-1234569-2</div></td></tr><tr><td style="font-weight:bold;vertical-align:top;">ruta_foto</td><td style="vertical-align:top;">:</td><td><div>cf_empresa.ruta_foto.b764f92bb1f67f9d.69636f2d696e6475636f6d2e706e67.png</div></td></tr><tr><td style="font-weight:bold;vertical-align:top;">telefono</td><td style="vertical-align:top;">:</td><td><div>58412-3659899</div></td></tr></table></div></td></tr><tr><td style="font-weight:bold;vertical-align:top;">user</td><td style="vertical-align:top;">:</td><td><div><table><tr><td style="font-weight:bold;vertical-align:top;">usuario</td><td style="vertical-align:top;">:</td><td><div>wasuaje</div></td></tr></table></div></td></tr></table></div>'
tRp128
sS'etype'
p129
S"<type 'exceptions.SyntaxError'>"
p130
sS'date'
p131
S'Mon May  5 16:37:45 2014'
p132
sS'response'
p133
g69
(S's\xd7\x1d\x00\x00<div><table><tr><td style="font-weight:bold;vertical-align:top;">body</td><td style="vertical-align:top;">:</td><td><div>&lt;cStringIO.StringO object at 0xb156d160&gt;</div></td></tr><tr><td style="font-weight:bold;vertical-align:top;">cookies</td><td style="vertical-align:top;">:</td><td><div><table><tr><td style="font-weight:bold;vertical-align:top;">session_id_pyrest</td><td style="vertical-align:top;">:</td><td><div>127.0.0.1-359e15a4-f5d2-4bc3-bd0a-e255459a1a44<table><tr><td style="font-weight:bold;vertical-align:top;">comment</td><td style="vertical-align:top;">:</td><td><div></div></td></tr><tr><td style="font-weight:bold;vertical-align:top;">domain</td><td style="vertical-align:top;">:</td><td><div></div></td></tr><tr><td style="font-weight:bold;vertical-align:top;">expires</td><td style="vertical-align:top;">:</td><td><div></div></td></tr><tr><td style="font-weight:bold;vertical-align:top;">httponly</td><td style="vertical-align:top;">:</td><td><div></div></td></tr><tr><td style="font-weight:bold;vertical-align:top;">max-age</td><td style="vertical-align:top;">:</td><td><div></div></td></tr><tr><td style="font-weight:bold;vertical-align:top;">path</td><td style="vertical-align:top;">:</td><td><div>/</div></td></tr><tr><td style="font-weight:bold;vertical-align:top;">secure</td><td style="vertical-align:top;">:</td><td><div></div></td></tr><tr><td style="font-weight:bold;vertical-align:top;">version</td><td style="vertical-align:top;">:</td><td><div></div></td></tr></table></div></td></tr></table></div></td></tr><tr><td style="font-weight:bold;vertical-align:top;">delimiters</td><td style="vertical-align:top;">:</td><td><div><table><tr><td><div>{{</div></td></tr><tr><td><div>}}</div></td></tr></table></div></td></tr><tr><td style="font-weight:bold;vertical-align:top;">files</td><td style="vertical-align:top;">:</td><td><div><table><tr><td><div>/PyRest/static/plugin_datatable/jquery.dataTables.min.js</div></td></tr><tr><td><div>/PyRest/static/plugin_datatable/jquery.dataTables.css</div></td></tr><tr><td><div>/PyRest/static/plugin_jqgrid/ui.jqgrid.css</div></td></tr><tr><td><div>/PyRest/static/plugin_jqgrid/south-street/css/south-street/jquery-ui-1.9.2.custom.css</div></td></tr><tr><td><div>/PyRest/static/plugin_jqgrid/jquery-ui-1.7.2.custom.min.js</div></td></tr><tr><td><div>/PyRest/static/plugin_jqgrid/i18n/grid.locale-en.js</div></td></tr><tr><td><div>/PyRest/static/plugin_jqgrid/jquery.jqGrid.min.js</div></td></tr><tr><td><div>/PyRest/static/plugin_multiselect/jquery.dimensions.js</div></td></tr><tr><td><div>/PyRest/static/plugin_multiselect/jquery.multiselect.js</div></td></tr><tr><td><div>/PyRest/static/plugin_multiselect/jquery.multiselect.css</div></td></tr><tr><td><div>/PyRest/static/plugin_sortable/jquery.ui.core.js</div></td></tr><tr><td><div>/PyRest/static/plugin_sortable/jquery.ui.sortable.js</div></td></tr></table></div></td></tr><tr><td style="font-weight:bold;vertical-align:top;">flash</td><td style="vertical-align:top;">:</td><td><div></div></td></tr><tr><td style="font-weight:bold;vertical-align:top;">generic_patterns</td><td style="vertical-align:top;">:</td><td><div><table><tr><td><div>*</div></td></tr></table></div></td></tr><tr><td style="font-weight:bold;vertical-align:top;">headers</td><td style="vertical-align:top;">:</td><td><div><table><tr><td style="font-weight:bold;vertical-align:top;">X-Powered-By</td><td style="vertical-align:top;">:</td><td><div>web2py</div></td></tr></table></div></td></tr><tr><td style="font-weight:bold;vertical-align:top;">menu</td><td style="vertical-align:top;">:</td><td><div><table></table></div></td></tr><tr><td style="font-weight:bold;vertical-align:top;">meta</td><td style="vertical-align:top;">:</td><td><div><table><tr><td style="font-weight:bold;vertical-align:top;">author</td><td style="vertical-align:top;">:</td><td><div>Wuelfhis Asuaje &lt;wasuaje@hotmail.com&gt;</div></td></tr><tr><td style="font-weight:bold;vertical-align:top;">description</td><td style="vertical-align:top;">:</td><td><div></div></td></tr><tr><td style="font-weight:bold;vertical-align:top;">keywords</td><td style="vertical-align:top;">:</td><td><div></div></td></tr></table></div></td></tr><tr><td style="font-weight:bold;vertical-align:top;">models_to_run</td><td style="vertical-align:top;">:</td><td><div><table><tr><td><div>^\\w+\\.py$</div></td></tr><tr><td><div>^default/\\w+\\.py$</div></td></tr><tr><td><div>^default/rptproducto2/\\w+\\.py$</div></td></tr></table></div></td></tr><tr><td style="font-weight:bold;vertical-align:top;">postprocessing</td><td style="vertical-align:top;">:</td><td><div><table></table></div></td></tr><tr><td style="font-weight:bold;vertical-align:top;">session_client</td><td style="vertical-align:top;">:</td><td><div>127.0.0.1</div></td></tr><tr><td style="font-weight:bold;vertical-align:top;">session_cookie_compression_level</td><td style="vertical-align:top;">:</td><td><div>None</div></td></tr><tr><td style="font-weight:bold;vertical-align:top;">session_cookie_expires</td><td style="vertical-align:top;">:</td><td><div>None</div></td></tr><tr><td style="font-weight:bold;vertical-align:top;">session_cookie_key</td><td style="vertical-align:top;">:</td><td><div>None</div></td></tr><tr><td style="font-weight:bold;vertical-align:top;">session_data_name</td><td style="vertical-align:top;">:</td><td><div>session_data_pyrest</div></td></tr><tr><td style="font-weight:bold;vertical-align:top;">session_file</td><td style="vertical-align:top;">:</td><td><div>&lt;open file &#x27;/home/wasuaje/Documentos/desarrollo/web2py6/applications/PyRest/sessions/127.0.0.1-359e15a4-f5d2-4bc3-bd0a-e255459a1a44&#x27;, mode &#x27;rb+&#x27; at 0xaca08e38&gt;</div></td></tr><tr><td style="font-weight:bold;vertical-align:top;">session_filename</td><td style="vertical-align:top;">:</td><td><div>/home/wasuaje/Documentos/desarrollo/web2py6/applications/PyRest/sessions/127.0.0.1-359e15a4-f5d2-4bc3-bd0a-e255459a1a44</div></td></tr><tr><td style="font-weight:bold;vertical-align:top;">session_hash</td><td style="vertical-align:top;">:</td><td><div>2abc446686df3e372a663c594b7f35d0</div></td></tr><tr><td style="font-weight:bold;vertical-align:top;">session_id</td><td style="vertical-align:top;">:</td><td><div>127.0.0.1-359e15a4-f5d2-4bc3-bd0a-e255459a1a44</div></td></tr><tr><td style="font-weight:bold;vertical-align:top;">session_id_name</td><td style="vertical-align:top;">:</td><td><div>session_id_pyrest</div></td></tr><tr><td style="font-weight:bold;vertical-align:top;">session_locked</td><td style="vertical-align:top;">:</td><td><div>True</div></td></tr><tr><td style="font-weight:bold;vertical-align:top;">session_masterapp</td><td style="vertical-align:top;">:</td><td><div>PyRest</div></td></tr><tr><td style="font-weight:bold;vertical-align:top;">session_new</td><td style="vertical-align:top;">:</td><td><div>False</div></td></tr><tr><td style="font-weight:bold;vertical-align:top;">session_storage_type</td><td style="vertical-align:top;">:</td><td><div>file</div></td></tr><tr><td style="font-weight:bold;vertical-align:top;">status</td><td style="vertical-align:top;">:</td><td><div>200</div></td></tr><tr><td style="font-weight:bold;vertical-align:top;">subtitle</td><td style="vertical-align:top;">:</td><td><div>Aplicacion para manejo de expendios de alimentos y afines</div></td></tr><tr><td style="font-weight:bold;vertical-align:top;">title</td><td style="vertical-align:top;">:</td><td><div>PyRest</div></td></tr><tr><td style="font-weight:bold;vertical-align:top;">view</td><td style="vertical-align:top;">:</td><td><div>default/rptproducto2.html</div></td></tr></table></div>'
tRp134
sS'locals'
p135
(dp136
g4
S"'/home/wasuaje/Documentos/desarrollo/web2py6/applications/PyRest/controllers/default.py'"
p137
sg6
S"'# -*- coding: utf-8 -*-\\n### required - do no del...()\\nresponse._vars=response._caller(rptproducto2)\\n'"
p138
sssS'traceback'
p139
S'Traceback (most recent call last):\n  File "/home/wasuaje/Documentos/desarrollo/web2py6/gluon/restricted.py", line 219, in restricted\n    ccode = compile2(code, layer)\n  File "/home/wasuaje/Documentos/desarrollo/web2py6/gluon/restricted.py", line 202, in compile2\n    return compile(code.rstrip().replace(\'\\r\\n\', \'\\n\') + \'\\n\', layer, \'exec\')\n  File "/home/wasuaje/Documentos/desarrollo/web2py6/applications/PyRest/controllers/default.py", line 200\n    for row in db(db.in_producto.id>0).select()\n                                                  ^\nSyntaxError: invalid syntax\n'
p140
s.